; ModuleID = 'source-C-CXX/32/1887.c'
source_filename = "source-C-CXX/32/1887.c"
target datalayout = "e-m:e-p270:32:32-p271:32:32-p272:64:64-i64:64-f80:128-n8:16:32:64-S128"
target triple = "x86_64-pc-linux-gnu"

@.str = private unnamed_addr constant [3 x i8] c"%d\00", align 1
@.str.1 = private unnamed_addr constant [3 x i8] c"%s\00", align 1

; Function Attrs: nofree nounwind sspstrong uwtable
define dso_local i32 @main() local_unnamed_addr #0 {
  %1 = alloca i32, align 4
  %2 = alloca [1000 x [300 x i8]], align 16
  %3 = alloca [1000 x [300 x i8]], align 16
  %4 = bitcast i32* %1 to i8*
  call void @llvm.lifetime.start.p0i8(i64 4, i8* nonnull %4) #4
  %5 = getelementptr inbounds [1000 x [300 x i8]], [1000 x [300 x i8]]* %2, i64 0, i64 0, i64 0
  call void @llvm.lifetime.start.p0i8(i64 300000, i8* nonnull %5) #4
  %6 = getelementptr inbounds [1000 x [300 x i8]], [1000 x [300 x i8]]* %3, i64 0, i64 0, i64 0
  call void @llvm.lifetime.start.p0i8(i64 300000, i8* nonnull %6) #4
  %7 = call i32 (i8*, ...) @__isoc99_scanf(i8* getelementptr inbounds ([3 x i8], [3 x i8]* @.str, i64 0, i64 0), i32* nonnull %1)
  %8 = load i32, i32* %1, align 4, !tbaa !5
  %9 = icmp sgt i32 %8, 0
  br i1 %9, label %12, label %70

10:                                               ; preds = %54
  %11 = icmp sgt i32 %59, 0
  br i1 %11, label %62, label %70

12:                                               ; preds = %0, %54
  %13 = phi i64 [ %58, %54 ], [ 0, %0 ]
  %14 = getelementptr inbounds [1000 x [300 x i8]], [1000 x [300 x i8]]* %2, i64 0, i64 %13
  %15 = call i32 (i8*, ...) @__isoc99_scanf(i8* getelementptr inbounds ([3 x i8], [3 x i8]* @.str.1, i64 0, i64 0), [300 x i8]* nonnull %14)
  %16 = getelementptr inbounds [300 x i8], [300 x i8]* %14, i64 0, i64 0
  %17 = call i64 @strlen(i8* noundef nonnull %16) #5
  %18 = trunc i64 %17 to i32
  %19 = icmp sgt i32 %18, 0
  br i1 %19, label %20, label %54

20:                                               ; preds = %12
  %21 = shl i64 %17, 32
  %22 = and i64 %17, 1
  %23 = icmp eq i64 %21, 4294967296
  br i1 %23, label %42, label %24

24:                                               ; preds = %20
  %25 = ashr exact i64 %21, 32
  %26 = sub nsw i64 %25, %22
  br label %27

27:                                               ; preds = %77, %24
  %28 = phi i64 [ 0, %24 ], [ %78, %77 ]
  %29 = phi i64 [ %26, %24 ], [ %79, %77 ]
  %30 = getelementptr inbounds [1000 x [300 x i8]], [1000 x [300 x i8]]* %2, i64 0, i64 %13, i64 %28
  %31 = load i8, i8* %30, align 2, !tbaa !9
  switch i8 %31, label %38 [
    i8 65, label %35
    i8 84, label %32
    i8 71, label %33
    i8 67, label %34
  ]

32:                                               ; preds = %27
  br label %35

33:                                               ; preds = %27
  br label %35

34:                                               ; preds = %27
  br label %35

35:                                               ; preds = %27, %34, %33, %32
  %36 = phi i8 [ 65, %32 ], [ 67, %33 ], [ 71, %34 ], [ 84, %27 ]
  %37 = getelementptr inbounds [1000 x [300 x i8]], [1000 x [300 x i8]]* %3, i64 0, i64 %13, i64 %28
  store i8 %36, i8* %37, align 2, !tbaa !9
  br label %38

38:                                               ; preds = %35, %27
  %39 = or i64 %28, 1
  %40 = getelementptr inbounds [1000 x [300 x i8]], [1000 x [300 x i8]]* %2, i64 0, i64 %13, i64 %39
  %41 = load i8, i8* %40, align 1, !tbaa !9
  switch i8 %41, label %77 [
    i8 65, label %74
    i8 84, label %73
    i8 71, label %72
    i8 67, label %71
  ]

42:                                               ; preds = %77, %20
  %43 = phi i64 [ 0, %20 ], [ %78, %77 ]
  %44 = icmp eq i64 %22, 0
  br i1 %44, label %54, label %45

45:                                               ; preds = %42
  %46 = getelementptr inbounds [1000 x [300 x i8]], [1000 x [300 x i8]]* %2, i64 0, i64 %13, i64 %43
  %47 = load i8, i8* %46, align 1, !tbaa !9
  switch i8 %47, label %54 [
    i8 65, label %51
    i8 84, label %50
    i8 71, label %49
    i8 67, label %48
  ]

48:                                               ; preds = %45
  br label %51

49:                                               ; preds = %45
  br label %51

50:                                               ; preds = %45
  br label %51

51:                                               ; preds = %50, %49, %48, %45
  %52 = phi i8 [ 65, %50 ], [ 67, %49 ], [ 71, %48 ], [ 84, %45 ]
  %53 = getelementptr inbounds [1000 x [300 x i8]], [1000 x [300 x i8]]* %3, i64 0, i64 %13, i64 %43
  store i8 %52, i8* %53, align 1, !tbaa !9
  br label %54

54:                                               ; preds = %42, %45, %51, %12
  %55 = shl i64 %17, 32
  %56 = ashr exact i64 %55, 32
  %57 = getelementptr inbounds [1000 x [300 x i8]], [1000 x [300 x i8]]* %3, i64 0, i64 %13, i64 %56
  store i8 0, i8* %57, align 1, !tbaa !9
  %58 = add nuw nsw i64 %13, 1
  %59 = load i32, i32* %1, align 4, !tbaa !5
  %60 = sext i32 %59 to i64
  %61 = icmp slt i64 %58, %60
  br i1 %61, label %12, label %10, !llvm.loop !10

62:                                               ; preds = %10, %62
  %63 = phi i64 [ %66, %62 ], [ 0, %10 ]
  %64 = getelementptr inbounds [1000 x [300 x i8]], [1000 x [300 x i8]]* %3, i64 0, i64 %63, i64 0
  %65 = call i32 @puts(i8* nonnull %64)
  %66 = add nuw nsw i64 %63, 1
  %67 = load i32, i32* %1, align 4, !tbaa !5
  %68 = sext i32 %67 to i64
  %69 = icmp slt i64 %66, %68
  br i1 %69, label %62, label %70, !llvm.loop !12

70:                                               ; preds = %62, %0, %10
  call void @llvm.lifetime.end.p0i8(i64 300000, i8* nonnull %6) #4
  call void @llvm.lifetime.end.p0i8(i64 300000, i8* nonnull %5) #4
  call void @llvm.lifetime.end.p0i8(i64 4, i8* nonnull %4) #4
  ret i32 0

71:                                               ; preds = %38
  br label %74

72:                                               ; preds = %38
  br label %74

73:                                               ; preds = %38
  br label %74

74:                                               ; preds = %73, %72, %71, %38
  %75 = phi i8 [ 65, %73 ], [ 67, %72 ], [ 71, %71 ], [ 84, %38 ]
  %76 = getelementptr inbounds [1000 x [300 x i8]], [1000 x [300 x i8]]* %3, i64 0, i64 %13, i64 %39
  store i8 %75, i8* %76, align 1, !tbaa !9
  br label %77

77:                                               ; preds = %74, %38
  %78 = add nuw nsw i64 %28, 2
  %79 = add i64 %29, -2
  %80 = icmp eq i64 %79, 0
  br i1 %80, label %42, label %27, !llvm.loop !13
}

; Function Attrs: argmemonly mustprogress nofree nosync nounwind willreturn
declare void @llvm.lifetime.start.p0i8(i64 immarg, i8* nocapture) #1

; Function Attrs: nofree nounwind
declare noundef i32 @__isoc99_scanf(i8* nocapture noundef readonly, ...) local_unnamed_addr #2

; Function Attrs: argmemonly mustprogress nofree nounwind readonly willreturn
declare i64 @strlen(i8* nocapture) local_unnamed_addr #3

; Function Attrs: nofree nounwind
declare noundef i32 @puts(i8* nocapture noundef readonly) local_unnamed_addr #2

; Function Attrs: argmemonly mustprogress nofree nosync nounwind willreturn
declare void @llvm.lifetime.end.p0i8(i64 immarg, i8* nocapture) #1


!llvm.module.flags = !{!0, !1, !2, !3}
!llvm.ident = !{!4}

!0 = !{i32 1, !"wchar_size", i32 4}
!1 = !{i32 7, !"PIC Level", i32 2}
!2 = !{i32 7, !"PIE Level", i32 2}
!3 = !{i32 7, !"uwtable", i32 1}
!4 = !{!"clang version 13.0.0"}
!5 = !{!6, !6, i64 0}
!6 = !{!"int", !7, i64 0}
!7 = !{!"omnipotent char", !8, i64 0}
!8 = !{!"Simple C/C++ TBAA"}
!9 = !{!7, !7, i64 0}
!10 = distinct !{!10, !11}
!11 = !{!"llvm.loop.mustprogress"}
!12 = distinct !{!12, !11}
!13 = distinct !{!13, !11}
